	.file	"main.c"
	.text
.Ltext0:
	.cfi_sections	.debug_frame
	.def	__main;	.scl	2;	.type	32;	.endef
	.section .rdata,"dr"
	.align 8
.LC0:
	.ascii "Digite os 3 valores desejados para calculo de media aritmetica e hamonica: \0"
.LC1:
	.ascii "%f %f %f\0"
	.align 8
.LC4:
	.ascii "Media aritmetica: %.2f\12Media harmonica: %.2f\0"
	.text
	.globl	main
	.def	main;	.scl	2;	.type	32;	.endef
	.seh_proc	main
main:
.LFB13:
	.file 1 "D:/Users/Marco/Documents/2020_2/Codeblocks/medias/main.c"
	.loc 1 5 1
	.cfi_startproc
	pushq	%rbp
	.seh_pushreg	%rbp
	.cfi_def_cfa_offset 16
	.cfi_offset 6, -16
	movq	%rsp, %rbp
	.seh_setframe	%rbp, 0
	.cfi_def_cfa_register 6
	subq	$64, %rsp
	.seh_stackalloc	64
	.seh_endprologue
	.loc 1 5 1
	call	__main
.LVL0:
	.loc 1 7 5
	leaq	.LC0(%rip), %rcx
	call	printf
	.loc 1 8 5
	leaq	-20(%rbp), %rcx
	leaq	-16(%rbp), %rdx
	leaq	-12(%rbp), %rax
	movq	%rcx, %r9
	movq	%rdx, %r8
	movq	%rax, %rdx
	leaq	.LC1(%rip), %rcx
	call	scanf
	.loc 1 9 25
	movss	-12(%rbp), %xmm1
	movss	-16(%rbp), %xmm0
	addss	%xmm0, %xmm1
	.loc 1 9 27
	movss	-20(%rbp), %xmm0
	addss	%xmm1, %xmm0
	.loc 1 9 21
	movss	.LC2(%rip), %xmm1
	divss	%xmm1, %xmm0
	movss	%xmm0, -4(%rbp)
	.loc 1 10 26
	movss	-12(%rbp), %xmm1
	movss	.LC3(%rip), %xmm0
	divss	%xmm1, %xmm0
	movaps	%xmm0, %xmm1
	.loc 1 10 32
	movss	-16(%rbp), %xmm2
	movss	.LC3(%rip), %xmm0
	divss	%xmm2, %xmm0
	.loc 1 10 29
	addss	%xmm0, %xmm1
	.loc 1 10 37
	movss	-20(%rbp), %xmm2
	movss	.LC3(%rip), %xmm0
	divss	%xmm2, %xmm0
	.loc 1 10 35
	addss	%xmm0, %xmm1
	.loc 1 10 20
	movss	.LC2(%rip), %xmm0
	divss	%xmm1, %xmm0
	movss	%xmm0, -8(%rbp)
	.loc 1 11 5
	cvtss2sd	-8(%rbp), %xmm1
	cvtss2sd	-4(%rbp), %xmm0
	movq	%xmm1, %rax
	movq	%rax, %rdx
	movq	%rdx, %rcx
	movq	%rax, %xmm1
	movq	%xmm0, %rax
	movq	%rax, %rdx
	movq	%rcx, %xmm2
	movq	%xmm1, %r8
	movq	%rdx, %xmm1
	movq	%rax, %rdx
	leaq	.LC4(%rip), %rcx
	call	printf
	.loc 1 12 12
	movl	$0, %eax
	.loc 1 13 1
	addq	$64, %rsp
	popq	%rbp
	.cfi_restore 6
	.cfi_def_cfa 7, 8
	ret
	.cfi_endproc
.LFE13:
	.seh_endproc
	.section .rdata,"dr"
	.align 4
.LC2:
	.long	1077936128
	.align 4
.LC3:
	.long	1065353216
	.text
.Letext0:
	.file 2 "C:/Program Files/CodeBlocks/MinGW/x86_64-w64-mingw32/include/math.h"